; ModuleID = '54/306.c'
source_filename = "54/306.c"
target datalayout = "e-m:e-p270:32:32-p271:32:32-p272:64:64-i64:64-f80:128-n8:16:32:64-S128"
target triple = "x86_64-pc-linux-gnu"

@.str = private unnamed_addr constant [6 x i8] c"%d %d\00", align 1
@.str.1 = private unnamed_addr constant [3 x i8] c"%d\00", align 1

; Function Attrs: noinline nounwind uwtable
define dso_local i32 @main() #0 {
  %1 = alloca i32, align 4
  %2 = alloca i32, align 4
  %3 = alloca i32, align 4
  %4 = alloca i32, align 4
  %5 = alloca i32, align 4
  %6 = alloca i32, align 4
  store i32 0, i32* %1, align 4
  store i32 1, i32* %2, align 4
  %7 = call i32 (i8*, ...) @__isoc99_scanf(i8* getelementptr inbounds ([6 x i8], [6 x i8]* @.str, i64 0, i64 0), i32* %4, i32* %5)
  store i32 1, i32* %3, align 4
  br label %8

8:                                                ; preds = %45, %0
  %9 = load i32, i32* %3, align 4
  %10 = load i32, i32* %4, align 4
  %11 = sub nsw i32 %10, 1
  %12 = mul nsw i32 %9, %11
  store i32 %12, i32* %6, align 4
  br label %13

13:                                               ; preds = %35, %8
  %14 = load i32, i32* %2, align 4
  %15 = load i32, i32* %4, align 4
  %16 = icmp sle i32 %14, %15
  br i1 %16, label %17, label %36

17:                                               ; preds = %13
  %18 = load i32, i32* %6, align 4
  %19 = load i32, i32* %4, align 4
  %20 = sub nsw i32 %19, 1
  %21 = srem i32 %18, %20
  %22 = icmp eq i32 %21, 0
  br i1 %22, label %23, label %34

23:                                               ; preds = %17
  %24 = load i32, i32* %4, align 4
  %25 = load i32, i32* %6, align 4
  %26 = mul nsw i32 %24, %25
  %27 = load i32, i32* %4, align 4
  %28 = sub nsw i32 %27, 1
  %29 = sdiv i32 %26, %28
  %30 = load i32, i32* %5, align 4
  %31 = add nsw i32 %29, %30
  store i32 %31, i32* %6, align 4
  %32 = load i32, i32* %2, align 4
  %33 = add nsw i32 %32, 1
  store i32 %33, i32* %2, align 4
  br label %35

34:                                               ; preds = %17
  store i32 1, i32* %2, align 4
  br label %36

35:                                               ; preds = %23
  br label %13

36:                                               ; preds = %34, %13
  %37 = load i32, i32* %2, align 4
  %38 = sub nsw i32 %37, 1
  %39 = load i32, i32* %4, align 4
  %40 = icmp eq i32 %38, %39
  br i1 %40, label %41, label %44

41:                                               ; preds = %36
  %42 = load i32, i32* %6, align 4
  %43 = call i32 (i8*, ...) @printf(i8* getelementptr inbounds ([3 x i8], [3 x i8]* @.str.1, i64 0, i64 0), i32 %42)
  br label %48

44:                                               ; preds = %36
  br label %45

45:                                               ; preds = %44
  %46 = load i32, i32* %3, align 4
  %47 = add nsw i32 %46, 1
  store i32 %47, i32* %3, align 4
  br label %8

48:                                               ; preds = %41
  ret i32 0
}

declare dso_local i32 @__isoc99_scanf(i8*, ...) #1

declare dso_local i32 @printf(i8*, ...) #1


!llvm.module.flags = !{!0}
!llvm.ident = !{!1}

!0 = !{i32 1, !"wchar_size", i32 4}
!1 = !{!"clang version 10.0.0-4ubuntu1 "}
