; ModuleID = 'source-C-CXX/53/306.c'
source_filename = "source-C-CXX/53/306.c"
target datalayout = "e-m:e-p270:32:32-p271:32:32-p272:64:64-i64:64-f80:128-n8:16:32:64-S128"
target triple = "x86_64-pc-linux-gnu"

@.str = private unnamed_addr constant [6 x i8] c"%d %d\00", align 1
@.str.1 = private unnamed_addr constant [3 x i8] c"%d\00", align 1

; Function Attrs: nofree nounwind sspstrong uwtable
define dso_local i32 @main() local_unnamed_addr #0 {
  %1 = alloca i32, align 4
  %2 = alloca i32, align 4
  %3 = bitcast i32* %1 to i8*
  call void @llvm.lifetime.start.p0i8(i64 4, i8* nonnull %3) #3
  %4 = bitcast i32* %2 to i8*
  call void @llvm.lifetime.start.p0i8(i64 4, i8* nonnull %4) #3
  %5 = call i32 (i8*, ...) @__isoc99_scanf(i8* getelementptr inbounds ([6 x i8], [6 x i8]* @.str, i64 0, i64 0), i32* nonnull %1, i32* nonnull %2)
  %6 = load i32, i32* %1, align 4, !tbaa !5
  %7 = add nsw i32 %6, -1
  %8 = load i32, i32* %2, align 4
  %9 = add i32 %6, 1
  br label %10

10:                                               ; preds = %26, %0
  %11 = phi i32 [ 1, %0 ], [ %28, %26 ]
  %12 = phi i32 [ 1, %0 ], [ %31, %26 ]
  %13 = mul nsw i32 %7, %12
  %14 = icmp sgt i32 %11, %6
  br i1 %14, label %26, label %15

15:                                               ; preds = %10, %20
  %16 = phi i32 [ %23, %20 ], [ %13, %10 ]
  %17 = phi i32 [ %24, %20 ], [ %11, %10 ]
  %18 = srem i32 %16, %7
  %19 = icmp eq i32 %18, 0
  br i1 %19, label %20, label %26

20:                                               ; preds = %15
  %21 = mul nsw i32 %16, %6
  %22 = sdiv i32 %21, %7
  %23 = add nsw i32 %8, %22
  %24 = add i32 %17, 1
  %25 = icmp eq i32 %17, %6
  br i1 %25, label %26, label %15, !llvm.loop !9

26:                                               ; preds = %20, %15, %10
  %27 = phi i32 [ %13, %10 ], [ %16, %15 ], [ %23, %20 ]
  %28 = phi i32 [ %11, %10 ], [ 1, %15 ], [ %9, %20 ]
  %29 = add nsw i32 %28, -1
  %30 = icmp eq i32 %29, %6
  %31 = add nuw nsw i32 %12, 1
  br i1 %30, label %32, label %10

32:                                               ; preds = %26
  %33 = call i32 (i8*, ...) @printf(i8* nonnull dereferenceable(1) getelementptr inbounds ([3 x i8], [3 x i8]* @.str.1, i64 0, i64 0), i32 %27)
  call void @llvm.lifetime.end.p0i8(i64 4, i8* nonnull %4) #3
  call void @llvm.lifetime.end.p0i8(i64 4, i8* nonnull %3) #3
  ret i32 0
}

; Function Attrs: argmemonly mustprogress nofree nosync nounwind willreturn
declare void @llvm.lifetime.start.p0i8(i64 immarg, i8* nocapture) #1

; Function Attrs: nofree nounwind
declare noundef i32 @__isoc99_scanf(i8* nocapture noundef readonly, ...) local_unnamed_addr #2

; Function Attrs: nofree nounwind
declare noundef i32 @printf(i8* nocapture noundef readonly, ...) local_unnamed_addr #2

; Function Attrs: argmemonly mustprogress nofree nosync nounwind willreturn
declare void @llvm.lifetime.end.p0i8(i64 immarg, i8* nocapture) #1


!llvm.module.flags = !{!0, !1, !2, !3}
!llvm.ident = !{!4}

!0 = !{i32 1, !"wchar_size", i32 4}
!1 = !{i32 7, !"PIC Level", i32 2}
!2 = !{i32 7, !"PIE Level", i32 2}
!3 = !{i32 7, !"uwtable", i32 1}
!4 = !{!"clang version 13.0.0"}
!5 = !{!6, !6, i64 0}
!6 = !{!"int", !7, i64 0}
!7 = !{!"omnipotent char", !8, i64 0}
!8 = !{!"Simple C/C++ TBAA"}
!9 = distinct !{!9, !10}
!10 = !{!"llvm.loop.mustprogress"}
